target datalayout = "e-m:e-p270:32:32-p271:32:32-p272:64:64-i64:64-i128:128-f80:128-n8:16:32:64-S128"
target triple = "x86_64-pc-linux-gnu"

; Function Attrs: inlinehint nounwind uwtable
define internal i32 @Abc_LitNot(i32 noundef %0) #2 {
  %2 = alloca i32, align 4
  store i32 %0, ptr %2, align 4, !tbaa !8
  %3 = load i32, ptr %2, align 4, !tbaa !8
  %4 = xor i32 %3, 1
  ret i32 %4
}

; Function Attrs: inlinehint nounwind uwtable
define internal i32 @Abc_LitNotCond(i32 noundef %0, i32 noundef %1) #2 {
  %3 = alloca i32, align 4
  %4 = alloca i32, align 4
  store i32 %0, ptr %3, align 4, !tbaa !8
  store i32 %1, ptr %4, align 4, !tbaa !8
  %5 = load i32, ptr %3, align 4, !tbaa !8
  %6 = load i32, ptr %4, align 4, !tbaa !8
  %7 = icmp sgt i32 %6, 0
  %8 = zext i1 %7 to i32
  %9 = xor i32 %5, %8
  ret i32 %9
}

; Function Attrs: nounwind uwtable
define i32 @Wlc_BlastLess3(ptr noundef %0, ptr noundef %1, ptr noundef %2, i32 noundef %3) #0 {
  %5 = alloca ptr, align 8
  %6 = alloca ptr, align 8
  %7 = alloca ptr, align 8
  %8 = alloca i32, align 4
  %9 = alloca i32, align 4
  %10 = alloca i32, align 4
  %11 = alloca i32, align 4
  %12 = alloca i32, align 4
  %13 = alloca i32, align 4
  %14 = alloca i32, align 4
  %15 = alloca i32, align 4
  %16 = alloca i32, align 4
  %17 = alloca i32, align 4
  store ptr %0, ptr %5, align 8, !tbaa !38
  store ptr %1, ptr %6, align 8, !tbaa !3
  store ptr %2, ptr %7, align 8, !tbaa !3
  store i32 %3, ptr %8, align 4, !tbaa !8
  call void @llvm.lifetime.start.p0(i64 4, ptr %9) #12
  call void @llvm.lifetime.start.p0(i64 4, ptr %10) #12
  store i32 1, ptr %10, align 4, !tbaa !8
  store i32 0, ptr %9, align 4, !tbaa !8
  br label %18

18:                                               ; preds = %114, %4
  %19 = load i32, ptr %9, align 4, !tbaa !8
  %20 = load i32, ptr %8, align 4, !tbaa !8
  %21 = icmp slt i32 %19, %20
  br i1 %21, label %22, label %117

22:                                               ; preds = %18
  call void @llvm.lifetime.start.p0(i64 4, ptr %11) #12
  %23 = load ptr, ptr %7, align 8, !tbaa !3
  %24 = load i32, ptr %9, align 4, !tbaa !8
  %25 = sext i32 %24 to i64
  %26 = getelementptr inbounds i32, ptr %23, i64 %25
  %27 = load i32, ptr %26, align 4, !tbaa !8
  store i32 %27, ptr %11, align 4, !tbaa !8
  call void @llvm.lifetime.start.p0(i64 4, ptr %12) #12
  %28 = load i32, ptr %9, align 4, !tbaa !8
  %29 = load i32, ptr %8, align 4, !tbaa !8
  %30 = sub nsw i32 %29, 1
  %31 = icmp eq i32 %28, %30
  br i1 %31, label %32, label %33

32:                                               ; preds = %22
  br label %40

33:                                               ; preds = %22
  %34 = load ptr, ptr %7, align 8, !tbaa !3
  %35 = load i32, ptr %9, align 4, !tbaa !8
  %36 = add nsw i32 %35, 1
  %37 = sext i32 %36 to i64
  %38 = getelementptr inbounds i32, ptr %34, i64 %37
  %39 = load i32, ptr %38, align 4, !tbaa !8
  br label %40

40:                                               ; preds = %33, %32
  %41 = phi i32 [ 0, %32 ], [ %39, %33 ]
  store i32 %41, ptr %12, align 4, !tbaa !8
  call void @llvm.lifetime.start.p0(i64 4, ptr %13) #12
  %42 = load ptr, ptr %6, align 8, !tbaa !3
  %43 = load i32, ptr %9, align 4, !tbaa !8
  %44 = sext i32 %43 to i64
  %45 = getelementptr inbounds i32, ptr %42, i64 %44
  %46 = load i32, ptr %45, align 4, !tbaa !8
  store i32 %46, ptr %13, align 4, !tbaa !8
  call void @llvm.lifetime.start.p0(i64 4, ptr %14) #12
  %47 = load i32, ptr %9, align 4, !tbaa !8
  %48 = load i32, ptr %8, align 4, !tbaa !8
  %49 = sub nsw i32 %48, 1
  %50 = icmp eq i32 %47, %49
  br i1 %50, label %51, label %52

51:                                               ; preds = %40
  br label %59

52:                                               ; preds = %40
  %53 = load ptr, ptr %6, align 8, !tbaa !3
  %54 = load i32, ptr %9, align 4, !tbaa !8
  %55 = add nsw i32 %54, 1
  %56 = sext i32 %55 to i64
  %57 = getelementptr inbounds i32, ptr %53, i64 %56
  %58 = load i32, ptr %57, align 4, !tbaa !8
  br label %59

59:                                               ; preds = %52, %51
  %60 = phi i32 [ 0, %51 ], [ %58, %52 ]
  store i32 %60, ptr %14, align 4, !tbaa !8
  call void @llvm.lifetime.start.p0(i64 4, ptr %15) #12
  %61 = load i32, ptr %9, align 4, !tbaa !8
  %62 = icmp eq i32 %61, 0
  br i1 %62, label %63, label %77

63:                                               ; preds = %59
  %64 = load ptr, ptr %5, align 8, !tbaa !38
  %65 = load i32, ptr %11, align 4, !tbaa !8
  %66 = load i32, ptr %9, align 4, !tbaa !8
  %67 = and i32 %66, 1
  %68 = icmp ne i32 %67, 0
  %69 = xor i1 %68, true
  %70 = zext i1 %69 to i32
  %71 = call i32 @Abc_LitNotCond(i32 noundef %65, i32 noundef %70)
  %72 = load i32, ptr %13, align 4, !tbaa !8
  %73 = load i32, ptr %9, align 4, !tbaa !8
  %74 = and i32 %73, 1
  %75 = call i32 @Abc_LitNotCond(i32 noundef %72, i32 noundef %74)
  %76 = call i32 @Gia_ManHashOr(ptr noundef %64, i32 noundef %71, i32 noundef %75)
  store i32 %76, ptr %15, align 4, !tbaa !8
  br label %91

77:                                               ; preds = %59
  %78 = load ptr, ptr %5, align 8, !tbaa !38
  %79 = load i32, ptr %11, align 4, !tbaa !8
  %80 = load i32, ptr %9, align 4, !tbaa !8
  %81 = and i32 %80, 1
  %82 = icmp ne i32 %81, 0
  %83 = xor i1 %82, true
  %84 = zext i1 %83 to i32
  %85 = call i32 @Abc_LitNotCond(i32 noundef %79, i32 noundef %84)
  %86 = load i32, ptr %13, align 4, !tbaa !8
  %87 = load i32, ptr %9, align 4, !tbaa !8
  %88 = and i32 %87, 1
  %89 = call i32 @Abc_LitNotCond(i32 noundef %86, i32 noundef %88)
  %90 = call i32 @Gia_ManHashAnd(ptr noundef %78, i32 noundef %85, i32 noundef %89)
  store i32 %90, ptr %15, align 4, !tbaa !8
  br label %91

91:                                               ; preds = %77, %63
  call void @llvm.lifetime.start.p0(i64 4, ptr %16) #12
  %92 = load ptr, ptr %5, align 8, !tbaa !38
  %93 = load i32, ptr %12, align 4, !tbaa !8
  %94 = load i32, ptr %9, align 4, !tbaa !8
  %95 = and i32 %94, 1
  %96 = icmp ne i32 %95, 0
  %97 = xor i1 %96, true
  %98 = zext i1 %97 to i32
  %99 = call i32 @Abc_LitNotCond(i32 noundef %93, i32 noundef %98)
  %100 = load i32, ptr %14, align 4, !tbaa !8
  %101 = load i32, ptr %9, align 4, !tbaa !8
  %102 = and i32 %101, 1
  %103 = call i32 @Abc_LitNotCond(i32 noundef %100, i32 noundef %102)
  %104 = call i32 @Gia_ManHashAnd(ptr noundef %92, i32 noundef %99, i32 noundef %103)
  store i32 %104, ptr %16, align 4, !tbaa !8
  call void @llvm.lifetime.start.p0(i64 4, ptr %17) #12
  %105 = load ptr, ptr %5, align 8, !tbaa !38
  %106 = load i32, ptr %15, align 4, !tbaa !8
  %107 = load i32, ptr %16, align 4, !tbaa !8
  %108 = call i32 @Gia_ManHashOr(ptr noundef %105, i32 noundef %106, i32 noundef %107)
  store i32 %108, ptr %17, align 4, !tbaa !8
  %109 = load ptr, ptr %5, align 8, !tbaa !38
  %110 = load i32, ptr %10, align 4, !tbaa !8
  %111 = call i32 @Abc_LitNot(i32 noundef %110)
  %112 = load i32, ptr %17, align 4, !tbaa !8
  %113 = call i32 @Gia_ManHashOr(ptr noundef %109, i32 noundef %111, i32 noundef %112)
  store i32 %113, ptr %10, align 4, !tbaa !8
  call void @llvm.lifetime.end.p0(i64 4, ptr %17) #12
  call void @llvm.lifetime.end.p0(i64 4, ptr %16) #12
  call void @llvm.lifetime.end.p0(i64 4, ptr %15) #12
  call void @llvm.lifetime.end.p0(i64 4, ptr %14) #12
  call void @llvm.lifetime.end.p0(i64 4, ptr %13) #12
  call void @llvm.lifetime.end.p0(i64 4, ptr %12) #12
  call void @llvm.lifetime.end.p0(i64 4, ptr %11) #12
  br label %114

114:                                              ; preds = %91
  %115 = load i32, ptr %9, align 4, !tbaa !8
  %116 = add nsw i32 %115, 1
  store i32 %116, ptr %9, align 4, !tbaa !8
  br label %18, !llvm.loop !75

117:                                              ; preds = %18
  %118 = load i32, ptr %10, align 4, !tbaa !8
  %119 = load i32, ptr %8, align 4, !tbaa !8
  %120 = and i32 %119, 1
  %121 = call i32 @Abc_LitNotCond(i32 noundef %118, i32 noundef %120)
  call void @llvm.lifetime.end.p0(i64 4, ptr %10) #12
  call void @llvm.lifetime.end.p0(i64 4, ptr %9) #12
  ret i32 %121
}