; Function Attrs: nounwind uwtable
define i32 @Wlc_BlastLess3(ptr noundef %0, ptr noundef readonly captures(none) %1, ptr noundef readonly captures(none) %2, i32 noundef %3) local_unnamed_addr #2 {
  %5 = icmp sgt i32 %3, 0
  br i1 %5, label %.lr.ph, label %._crit_edge

.lr.ph:                                           ; preds = %4
  %6 = add nsw i32 %3, -1
  %7 = zext nneg i32 %6 to i64
  %wide.trip.count = zext nneg i32 %3 to i64
  %8 = getelementptr inbounds nuw i32, ptr %1, i64 %7
  br label %9

9:                                                ; preds = %.lr.ph, %33
  %indvars.iv = phi i64 [ 0, %.lr.ph ], [ %indvars.iv.next, %33 ]
  %.03841 = phi i32 [ 1, %.lr.ph ], [ %40, %33 ]
  %10 = getelementptr inbounds nuw i32, ptr %2, i64 %indvars.iv
  %11 = load i32, ptr %10, align 4, !tbaa !3
  %12 = icmp eq i64 %indvars.iv, %7
  br i1 %12, label %.thread, label %13

13:                                               ; preds = %9
  %14 = getelementptr inbounds nuw i8, ptr %10, i64 4
  %15 = load i32, ptr %14, align 4, !tbaa !3
  %16 = getelementptr inbounds nuw i32, ptr %1, i64 %indvars.iv
  %17 = getelementptr inbounds nuw i8, ptr %16, i64 4
  %18 = load i32, ptr %17, align 4, !tbaa !3
  br label %.thread

.thread:                                          ; preds = %9, %13
  %.in = phi ptr [ %16, %13 ], [ %8, %9 ]
  %19 = phi i32 [ %15, %13 ], [ 0, %9 ]
  %20 = phi i32 [ %18, %13 ], [ 0, %9 ]
  %21 = load i32, ptr %.in, align 4, !tbaa !3
  %22 = icmp eq i64 %indvars.iv, 0
  br i1 %22, label %23, label %26

23:                                               ; preds = %.thread
  %24 = xor i32 %11, 1
  %25 = tail call i32 @Gia_ManHashOr(ptr noundef %0, i32 noundef %24, i32 noundef %21) #23
  br label %33

26:                                               ; preds = %.thread
  %27 = trunc nuw nsw i64 %indvars.iv to i32
  %28 = and i32 %27, 1
  %29 = xor i32 %28, %11
  %30 = xor i32 %29, 1
  %31 = xor i32 %21, %28
  %32 = tail call i32 @Gia_ManHashAnd(ptr noundef %0, i32 noundef %30, i32 noundef %31) #23
  br label %33

33:                                               ; preds = %26, %23
  %.pre-phi45 = phi i32 [ %28, %26 ], [ 0, %23 ]
  %.039 = phi i32 [ %32, %26 ], [ %25, %23 ]
  %34 = xor i32 %.pre-phi45, %19
  %35 = xor i32 %34, 1
  %36 = xor i32 %20, %.pre-phi45
  %37 = tail call i32 @Gia_ManHashAnd(ptr noundef %0, i32 noundef %35, i32 noundef %36) #23
  %38 = tail call i32 @Gia_ManHashOr(ptr noundef %0, i32 noundef %.039, i32 noundef %37) #23
  %39 = xor i32 %.03841, 1
  %40 = tail call i32 @Gia_ManHashOr(ptr noundef %0, i32 noundef %39, i32 noundef %38) #23
  %indvars.iv.next = add nuw nsw i64 %indvars.iv, 1
  %exitcond.not = icmp eq i64 %indvars.iv.next, %wide.trip.count
  br i1 %exitcond.not, label %._crit_edge, label %9, !llvm.loop !65

._crit_edge:                                      ; preds = %33, %4
  %.038.lcssa = phi i32 [ 1, %4 ], [ %40, %33 ]
  %41 = and i32 %3, 1
  %42 = xor i32 %.038.lcssa, %41
  ret i32 %42
}